target datalayout = "e-m:e-p270:32:32-p271:32:32-p272:64:64-i64:64-i128:128-f80:128-n8:16:32:64-S128"
target triple = "x86_64-pc-linux-gnu"

%"struct.DispersionCorrection::InteractionParams" = type { %"class.std::unique_ptr", float, float, float, float, float, float }
%"class.std::unique_ptr" = type { %"struct.std::__uniq_ptr_data" }
%"struct.std::__uniq_ptr_data" = type { %"class.std::__uniq_ptr_impl" }
%"class.std::__uniq_ptr_impl" = type { %"class.std::tuple" }
%"class.std::tuple" = type { %"struct.std::_Tuple_impl" }
%"struct.std::_Tuple_impl" = type { %"struct.std::_Head_base.1" }
%"struct.std::_Head_base.1" = type { ptr }
%"class.DispersionCorrection::TopologyParams" = type { i32, float, %"struct.std::array", %"struct.std::array" }
%"struct.std::array" = type { [2 x float] }
%class.DispersionCorrection = type { i32, i32, i32, %"class.DispersionCorrection::TopologyParams", %"struct.DispersionCorrection::InteractionParams" }

; Function Attrs: mustprogress uwtable
define void @_ZN20DispersionCorrection13setParametersERK19interaction_const_t(ptr noundef nonnull align 8 dereferenceable(72) %0, ptr noundef nonnull align 8 dereferenceable(152) %1) #5 align 2 {
  %3 = alloca ptr, align 8
  %4 = alloca ptr, align 8
  store ptr %0, ptr %3, align 8, !tbaa !412
  store ptr %1, ptr %4, align 8, !tbaa !355
  %5 = load ptr, ptr %3, align 8
  %6 = getelementptr inbounds nuw %class.DispersionCorrection, ptr %5, i32 0, i32 0
  %7 = load i32, ptr %6, align 8, !tbaa !415
  %8 = icmp ne i32 %7, 0
  br i1 %8, label %9, label %12

9:                                                ; preds = %2
  %10 = getelementptr inbounds nuw %class.DispersionCorrection, ptr %5, i32 0, i32 4
  %11 = load ptr, ptr %4, align 8, !tbaa !355
  call void @_ZN20DispersionCorrection24setInteractionParametersEPNS_17InteractionParamsERK19interaction_const_tPKc(ptr noundef %10, ptr noundef nonnull align 8 dereferenceable(152) %11, ptr noundef null)
  br label %12

12:                                               ; preds = %9, %2
  ret void
}