; Function Attrs: mustprogress uwtable
define void @_ZN20DispersionCorrection13setParametersERK19interaction_const_t(ptr noundef nonnull align 8 captures(none) dereferenceable(72) %0, ptr noundef nonnull align 8 dereferenceable(152) %1) local_unnamed_addr #4 align 2 {
  %3 = load i32, ptr %0, align 8, !tbaa !255
  %.not = icmp eq i32 %3, 0
  br i1 %.not, label %6, label %4

4:                                                ; preds = %2
  %5 = getelementptr inbounds nuw i8, ptr %0, i64 40
  tail call void @_ZN20DispersionCorrection24setInteractionParametersEPNS_17InteractionParamsERK19interaction_const_tPKc(ptr noundef nonnull %5, ptr noundef nonnull align 8 dereferenceable(152) %1, ptr noundef null)
  br label %6

6:                                                ; preds = %4, %2
  ret void
}